; Function Attrs: nounwind uwtable
define hidden ptr @dlpvalloc(i64 noundef %0) local_unnamed_addr #0 {
  %2 = load i64, ptr @mparams, align 8, !tbaa !3
  %.not = icmp eq i64 %2, 0
  br i1 %.not, label %3, label %4

3:                                                ; preds = %1
  tail call fastcc void @init_mparams()
  br label %4

4:                                                ; preds = %3, %1
  %5 = load i64, ptr getelementptr inbounds nuw (i8, ptr @mparams, i64 8), align 8, !tbaa !31
  %6 = add i64 %0, -1
  %7 = add i64 %6, %5
  %8 = sub i64 0, %5
  %9 = and i64 %7, %8
  %10 = icmp ult i64 %5, 17
  br i1 %10, label %11, label %13

11:                                               ; preds = %4
  %12 = tail call ptr @dlmalloc(i64 noundef %9)
  br label %dlmemalign.exit

13:                                               ; preds = %4
  %14 = tail call fastcc ptr @internal_memalign(ptr noundef nonnull @_gm_, i64 noundef %5, i64 noundef %9)
  br label %dlmemalign.exit

dlmemalign.exit:                                  ; preds = %11, %13
  %.0.i = phi ptr [ %12, %11 ], [ %14, %13 ]
  ret ptr %.0.i
}